target datalayout = "e-m:e-p270:32:32-p271:32:32-p272:64:64-i64:64-i128:128-f80:128-n8:16:32:64-S128"
target triple = "x86_64-pc-linux-gnu"

%struct._header_field_info = type { ptr, ptr, i32, i32, ptr, i64, ptr, i32, i32, i32, i32, ptr }

@ett_tlv = internal global [256 x i32] zeroinitializer, align 16
@hf_tlv_type = internal global i32 0, align 4
@hf_tlv_length_size = internal global i32 0, align 4
@hf_tlv_length = internal global i32 0, align 4

; Function Attrs: null_pointer_is_valid sspstrong uwtable
define hidden ptr @add_tlv_subtree_no_item(ptr noundef %0, ptr noundef %1, i32 noundef %2, ptr noundef %3, i32 noundef %4) #0 {
  %6 = alloca ptr, align 8
  %7 = alloca ptr, align 8
  %8 = alloca ptr, align 8
  %9 = alloca i32, align 4
  %10 = alloca ptr, align 8
  %11 = alloca i32, align 4
  %12 = alloca ptr, align 8
  %13 = alloca ptr, align 8
  %14 = alloca i32, align 4
  %15 = alloca i32, align 4
  %16 = alloca i8, align 1
  %17 = alloca i8, align 1
  %18 = alloca i32, align 4
  store ptr %0, ptr %7, align 8
  store ptr %1, ptr %8, align 8
  store i32 %2, ptr %9, align 4
  store ptr %3, ptr %10, align 8
  store i32 %4, ptr %11, align 4
  call void @llvm.lifetime.start.p0(i64 8, ptr %12) #5
  call void @llvm.lifetime.start.p0(i64 8, ptr %13) #5
  call void @llvm.lifetime.start.p0(i64 4, ptr %14) #5
  call void @llvm.lifetime.start.p0(i64 4, ptr %15) #5
  call void @llvm.lifetime.start.p0(i64 1, ptr %16) #5
  call void @llvm.lifetime.start.p0(i64 1, ptr %17) #5
  %19 = load ptr, ptr %7, align 8
  %20 = call i32 @get_tlv_type(ptr noundef %19)
  %21 = icmp slt i32 %20, 0
  br i1 %21, label %22, label %24

22:                                               ; preds = %5
  %23 = load ptr, ptr %8, align 8
  store ptr %23, ptr %6, align 8
  store i32 1, ptr %18, align 4
  br label %89

24:                                               ; preds = %5
  %25 = load ptr, ptr %7, align 8
  %26 = call i32 @get_tlv_value_offset(ptr noundef %25)
  store i32 %26, ptr %15, align 4
  %27 = load ptr, ptr %7, align 8
  %28 = call i32 @get_tlv_length(ptr noundef %27)
  store i32 %28, ptr %14, align 4
  %29 = load ptr, ptr %7, align 8
  %30 = call i32 @get_tlv_size_of_length(ptr noundef %29)
  %31 = trunc i32 %30 to i8
  store i8 %31, ptr %16, align 1
  %32 = load ptr, ptr %7, align 8
  %33 = call i32 @get_tlv_type(ptr noundef %32)
  %34 = trunc i32 %33 to i8
  store i8 %34, ptr %17, align 1
  %35 = load i32, ptr %9, align 4
  %36 = call ptr @proto_registrar_get_nth(i32 noundef %35)
  store ptr %36, ptr %12, align 8
  %37 = load ptr, ptr %8, align 8
  %38 = load ptr, ptr %10, align 8
  %39 = load i32, ptr %11, align 4
  %40 = load i32, ptr %14, align 4
  %41 = load i32, ptr %15, align 4
  %42 = add i32 %40, %41
  %43 = load i8, ptr %17, align 1
  %44 = zext i8 %43 to i64
  %45 = getelementptr [256 x i32], ptr @ett_tlv, i64 0, i64 %44
  %46 = load i32, ptr %45, align 4
  %47 = load ptr, ptr %12, align 8
  %48 = getelementptr inbounds nuw %struct._header_field_info, ptr %47, i32 0, i32 0
  %49 = load ptr, ptr %48, align 8
  %50 = call ptr @proto_tree_add_subtree(ptr noundef %37, ptr noundef %38, i32 noundef %39, i32 noundef %42, i32 noundef %46, ptr noundef null, ptr noundef %49)
  store ptr %50, ptr %13, align 8
  %51 = load ptr, ptr %13, align 8
  %52 = load i32, ptr @hf_tlv_type, align 4
  %53 = load ptr, ptr %10, align 8
  %54 = load i32, ptr %11, align 4
  %55 = load i8, ptr %17, align 1
  %56 = zext i8 %55 to i32
  %57 = call ptr @proto_tree_add_uint(ptr noundef %51, i32 noundef %52, ptr noundef %53, i32 noundef %54, i32 noundef 1, i32 noundef %56)
  %58 = load i8, ptr %16, align 1
  %59 = zext i8 %58 to i32
  %60 = icmp sgt i32 %59, 0
  br i1 %60, label %61, label %79

61:                                               ; preds = %24
  %62 = load ptr, ptr %13, align 8
  %63 = load i32, ptr @hf_tlv_length_size, align 4
  %64 = load ptr, ptr %10, align 8
  %65 = load i32, ptr %11, align 4
  %66 = add i32 %65, 1
  %67 = load i8, ptr %16, align 1
  %68 = zext i8 %67 to i32
  %69 = call ptr @proto_tree_add_uint(ptr noundef %62, i32 noundef %63, ptr noundef %64, i32 noundef %66, i32 noundef 1, i32 noundef %68)
  %70 = load ptr, ptr %13, align 8
  %71 = load i32, ptr @hf_tlv_length, align 4
  %72 = load ptr, ptr %10, align 8
  %73 = load i32, ptr %11, align 4
  %74 = add i32 %73, 2
  %75 = load i8, ptr %16, align 1
  %76 = zext i8 %75 to i32
  %77 = load i32, ptr %14, align 4
  %78 = call ptr @proto_tree_add_uint(ptr noundef %70, i32 noundef %71, ptr noundef %72, i32 noundef %74, i32 noundef %76, i32 noundef %77)
  br label %87

79:                                               ; preds = %24
  %80 = load ptr, ptr %13, align 8
  %81 = load i32, ptr @hf_tlv_length, align 4
  %82 = load ptr, ptr %10, align 8
  %83 = load i32, ptr %11, align 4
  %84 = add i32 %83, 1
  %85 = load i32, ptr %14, align 4
  %86 = call ptr @proto_tree_add_uint(ptr noundef %80, i32 noundef %81, ptr noundef %82, i32 noundef %84, i32 noundef 1, i32 noundef %85)
  br label %87

87:                                               ; preds = %79, %61
  %88 = load ptr, ptr %13, align 8
  store ptr %88, ptr %6, align 8
  store i32 1, ptr %18, align 4
  br label %89

89:                                               ; preds = %87, %22
  call void @llvm.lifetime.end.p0(i64 1, ptr %17) #5
  call void @llvm.lifetime.end.p0(i64 1, ptr %16) #5
  call void @llvm.lifetime.end.p0(i64 4, ptr %15) #5
  call void @llvm.lifetime.end.p0(i64 4, ptr %14) #5
  call void @llvm.lifetime.end.p0(i64 8, ptr %13) #5
  call void @llvm.lifetime.end.p0(i64 8, ptr %12) #5
  %90 = load ptr, ptr %6, align 8
  ret ptr %90
}