; Function Attrs: null_pointer_is_valid sspstrong uwtable
define hidden noundef ptr @add_tlv_subtree_no_item(ptr noundef %0, ptr noundef %1, i32 noundef %2, ptr noundef %3, i32 noundef %4) local_unnamed_addr #0 {
  %6 = tail call i32 @get_tlv_type(ptr noundef %0)
  %7 = icmp slt i32 %6, 0
  br i1 %7, label %33, label %8

8:                                                ; preds = %5
  %9 = tail call i32 @get_tlv_value_offset(ptr noundef %0)
  %10 = tail call i32 @get_tlv_length(ptr noundef %0)
  %11 = tail call i32 @get_tlv_size_of_length(ptr noundef %0)
  %12 = tail call i32 @get_tlv_type(ptr noundef %0)
  %13 = tail call ptr @proto_registrar_get_nth(i32 noundef %2)
  %14 = add i32 %10, %9
  %.mask = and i32 %12, 255
  %15 = zext nneg i32 %.mask to i64
  %16 = getelementptr [256 x i32], ptr @ett_tlv, i64 0, i64 %15
  %17 = load i32, ptr %16, align 4
  %18 = load ptr, ptr %13, align 8
  %19 = tail call ptr @proto_tree_add_subtree(ptr noundef %1, ptr noundef %3, i32 noundef %4, i32 noundef %14, i32 noundef %17, ptr noundef null, ptr noundef %18)
  %20 = load i32, ptr @hf_tlv_type, align 4
  %21 = tail call ptr @proto_tree_add_uint(ptr noundef %19, i32 noundef %20, ptr noundef %3, i32 noundef %4, i32 noundef 1, i32 noundef %.mask)
  %22 = and i32 %11, 255
  %.not = icmp eq i32 %22, 0
  %23 = add i32 %4, 1
  br i1 %.not, label %30, label %24

24:                                               ; preds = %8
  %25 = load i32, ptr @hf_tlv_length_size, align 4
  %26 = tail call ptr @proto_tree_add_uint(ptr noundef %19, i32 noundef %25, ptr noundef %3, i32 noundef %23, i32 noundef 1, i32 noundef %22)
  %27 = load i32, ptr @hf_tlv_length, align 4
  %28 = add i32 %4, 2
  %29 = tail call ptr @proto_tree_add_uint(ptr noundef %19, i32 noundef %27, ptr noundef %3, i32 noundef %28, i32 noundef %22, i32 noundef %10)
  br label %33

30:                                               ; preds = %8
  %31 = load i32, ptr @hf_tlv_length, align 4
  %32 = tail call ptr @proto_tree_add_uint(ptr noundef %19, i32 noundef %31, ptr noundef %3, i32 noundef %23, i32 noundef 1, i32 noundef %10)
  br label %33

33:                                               ; preds = %24, %30, %5
  %.0 = phi ptr [ %1, %5 ], [ %19, %30 ], [ %19, %24 ]
  ret ptr %.0
}